; ModuleID = 'source-C-CXX/53/735.c'
source_filename = "source-C-CXX/53/735.c"
target datalayout = "e-m:e-p270:32:32-p271:32:32-p272:64:64-i64:64-f80:128-n8:16:32:64-S128"
target triple = "x86_64-pc-linux-gnu"

@.str = private unnamed_addr constant [7 x i8] c"%ld%ld\00", align 1
@.str.1 = private unnamed_addr constant [4 x i8] c"%ld\00", align 1
@.str.2 = private unnamed_addr constant [3 x i8] c"%d\00", align 1

; Function Attrs: nofree nounwind sspstrong uwtable
define dso_local i32 @main() local_unnamed_addr #0 {
  %1 = alloca i64, align 8
  %2 = alloca i64, align 8
  %3 = alloca i64, align 8
  %4 = bitcast i64* %1 to i8*
  call void @llvm.lifetime.start.p0i8(i64 8, i8* nonnull %4) #3
  %5 = bitcast i64* %2 to i8*
  call void @llvm.lifetime.start.p0i8(i64 8, i8* nonnull %5) #3
  %6 = bitcast i64* %3 to i8*
  call void @llvm.lifetime.start.p0i8(i64 8, i8* nonnull %6) #3
  %7 = call i32 (i8*, ...) @__isoc99_scanf(i8* getelementptr inbounds ([7 x i8], [7 x i8]* @.str, i64 0, i64 0), i64* nonnull %3, i64* nonnull %2)
  %8 = load i64, i64* %3, align 8, !tbaa !5
  %9 = add nsw i64 %8, -1
  %10 = load i64, i64* %2, align 8
  %11 = icmp eq i64 %8, 0
  br i1 %11, label %28, label %14

12:                                               ; preds = %24, %18
  %13 = add nsw i64 %15, 1
  br label %14

14:                                               ; preds = %0, %12
  %15 = phi i64 [ %13, %12 ], [ %8, %0 ]
  br label %18

16:                                               ; preds = %24
  %17 = icmp eq i64 %27, 0
  br i1 %17, label %28, label %18

18:                                               ; preds = %14, %16
  %19 = phi i64 [ %8, %14 ], [ %27, %16 ]
  %20 = phi i64 [ %15, %14 ], [ %25, %16 ]
  %21 = srem i64 %20, %8
  %22 = sdiv i64 %20, %8
  %23 = icmp eq i64 %21, %10
  br i1 %23, label %24, label %12

24:                                               ; preds = %18
  %25 = mul nsw i64 %22, %9
  %26 = icmp slt i64 %25, 1
  %27 = add nsw i64 %19, -1
  br i1 %26, label %12, label %16

28:                                               ; preds = %16, %0
  %29 = phi i64 [ 0, %0 ], [ %15, %16 ]
  %30 = call i32 (i8*, ...) @printf(i8* nonnull dereferenceable(1) getelementptr inbounds ([4 x i8], [4 x i8]* @.str.1, i64 0, i64 0), i64 %29)
  %31 = call i32 (i8*, ...) @__isoc99_scanf(i8* getelementptr inbounds ([3 x i8], [3 x i8]* @.str.2, i64 0, i64 0), i64* nonnull %1)
  call void @llvm.lifetime.end.p0i8(i64 8, i8* nonnull %6) #3
  call void @llvm.lifetime.end.p0i8(i64 8, i8* nonnull %5) #3
  call void @llvm.lifetime.end.p0i8(i64 8, i8* nonnull %4) #3
  ret i32 0
}

; Function Attrs: argmemonly mustprogress nofree nosync nounwind willreturn
declare void @llvm.lifetime.start.p0i8(i64 immarg, i8* nocapture) #1

; Function Attrs: nofree nounwind
declare noundef i32 @__isoc99_scanf(i8* nocapture noundef readonly, ...) local_unnamed_addr #2

; Function Attrs: nofree nounwind
declare noundef i32 @printf(i8* nocapture noundef readonly, ...) local_unnamed_addr #2

; Function Attrs: argmemonly mustprogress nofree nosync nounwind willreturn
declare void @llvm.lifetime.end.p0i8(i64 immarg, i8* nocapture) #1


!llvm.module.flags = !{!0, !1, !2, !3}
!llvm.ident = !{!4}

!0 = !{i32 1, !"wchar_size", i32 4}
!1 = !{i32 7, !"PIC Level", i32 2}
!2 = !{i32 7, !"PIE Level", i32 2}
!3 = !{i32 7, !"uwtable", i32 1}
!4 = !{!"clang version 13.0.0"}
!5 = !{!6, !6, i64 0}
!6 = !{!"long", !7, i64 0}
!7 = !{!"omnipotent char", !8, i64 0}
!8 = !{!"Simple C/C++ TBAA"}
